; Function Attrs: nounwind uwtable
define internal { i64, ptr } @f_tostring(ptr readnone captures(none) %0, i64 %1, ptr %2) #0 {
  %4 = tail call i32 @jv_get_kind(i64 %1, ptr %2) #14
  %5 = icmp eq i32 %4, 5
  br i1 %5, label %6, label %9

6:                                                ; preds = %3
  %7 = insertvalue { i64, ptr } poison, i64 %1, 0
  %8 = insertvalue { i64, ptr } %7, ptr %2, 1
  br label %11

9:                                                ; preds = %3
  %10 = tail call { i64, ptr } @jv_dump_string(i64 %1, ptr %2, i32 noundef 0) #14
  br label %11

11:                                               ; preds = %9, %6
  %.fca.1.insert.merged = phi { i64, ptr } [ %8, %6 ], [ %10, %9 ]
  ret { i64, ptr } %.fca.1.insert.merged
}